Certificate:
    Data:
        Version: 3 (0x2)
        Serial Number: 1 (0x1)
    Signature Algorithm: sha256WithRSAEncryption
        Issuer: C=FR, ST=Radius, L=Somewhere, O=Example Inc./emailAddress=admin@example.org, CN=Example Certificate Authority
        Validity
            Not Before: Nov 13 15:01:39 2017 GMT
            Not After : Jan 12 15:01:39 2018 GMT
        Subject: C=FR, ST=Radius, O=Example Inc., CN=Example Server Certificate/emailAddress=admin@example.org
        Subject Public Key Info:
            Public Key Algorithm: rsaEncryption
                Public-Key: (2048 bit)
                Modulus:
                    00:c2:37:07:49:ac:2b:de:8f:44:37:83:42:00:0b:
                    4b:f5:41:f6:78:ab:70:8a:3f:b9:0c:c1:50:57:50:
                    10:46:04:f3:80:07:b6:d1:31:73:9f:6f:10:da:93:
                    38:d8:d2:79:91:35:e9:0b:d2:36:5b:1b:3f:6d:cc:
                    11:2f:e6:12:f3:c9:53:f7:fb:61:6d:52:65:0f:f9:
                    0f:72:88:9b:82:32:78:63:e1:7b:5a:a8:52:17:bf:
                    20:ba:3c:6e:d0:4a:71:57:ff:e6:f9:69:3d:19:e9:
                    b8:3f:b1:5f:e2:c5:26:ea:ae:12:97:41:fc:61:47:
                    b2:3e:bf:39:0a:76:e0:af:0c:d1:18:9e:b0:7e:46:
                    52:05:97:53:29:0f:a7:73:55:62:c6:5b:9f:70:ce:
                    0b:de:66:a6:56:07:51:8c:8a:e8:d3:f0:e3:80:82:
                    ba:61:6f:db:45:b5:7f:eb:e7:ab:9c:bc:94:04:35:
                    3c:c7:b3:a1:a8:d1:2d:68:33:5b:e3:f6:ed:40:da:
                    c8:ad:1f:59:7b:eb:44:44:bd:58:77:0d:5c:c9:e4:
                    7c:8b:9f:35:44:13:7c:1d:8f:55:71:d6:06:7c:ae:
                    43:8e:7a:e7:9f:4c:95:7b:c1:7c:36:a1:71:df:d4:
                    f9:e7:a1:7c:3d:a6:90:9f:34:e6:45:f8:8b:de:32:
                    2e:65
                Exponent: 65537 (0x10001)
        X509v3 extensions:
            X509v3 Extended Key Usage: 
                TLS Web Server Authentication
            X509v3 CRL Distribution Points: 

                Full Name:
                  URI:http://www.example.com/example_ca.crl

    Signature Algorithm: sha256WithRSAEncryption
         89:e4:a5:81:90:66:82:b7:a8:e4:89:23:46:c2:c5:d7:04:ee:
         ce:f6:c4:97:27:a9:28:c5:10:79:f8:6a:d7:0f:e8:d4:49:9f:
         a8:58:6b:aa:3c:56:8a:d2:39:be:4b:af:0d:81:4d:05:95:0e:
         2b:4e:ab:59:22:7a:91:f2:ed:ad:2d:ae:f6:c8:32:97:33:4e:
         2c:b2:4a:c1:68:43:50:b6:bc:42:81:1d:8b:09:ad:fb:5f:c3:
         10:12:39:80:20:e1:5e:e1:e3:e7:5f:f8:d0:6c:39:47:21:ed:
         0c:78:41:d2:e4:47:2f:fc:57:52:f6:52:43:f6:ad:e6:44:28:
         9c:cd:7e:92:9f:f9:39:5f:c4:e7:f4:93:3d:f0:09:ab:57:94:
         ff:58:5b:b7:f2:66:f3:42:92:3c:e4:e8:95:8d:09:92:7a:80:
         f6:fa:65:c4:8c:23:2e:95:75:72:77:8a:5a:eb:fa:1f:a2:c0:
         ec:76:f0:58:ee:c7:b8:fb:e1:fb:4d:b6:69:ee:5e:31:d7:4a:
         8c:47:fd:8e:45:9a:63:2a:8a:cb:2b:50:e2:a0:f6:d0:59:14:
         21:d3:9e:fb:0a:c0:d3:73:29:d2:6b:52:92:a2:09:b2:1a:77:
         f9:e5:a6:73:53:cf:da:71:2c:40:7c:05:71:4f:3b:69:09:fb:
         c9:7e:79:6a
-----BEGIN CERTIFICATE-----
MIID2jCCAsKgAwIBAgIBATANBgkqhkiG9w0BAQsFADCBkzELMAkGA1UEBhMCRlIx
DzANBgNVBAgMBlJhZGl1czESMBAGA1UEBwwJU29tZXdoZXJlMRUwEwYDVQQKDAxF
eGFtcGxlIEluYy4xIDAeBgkqhkiG9w0BCQEWEWFkbWluQGV4YW1wbGUub3JnMSYw
JAYDVQQDDB1FeGFtcGxlIENlcnRpZmljYXRlIEF1dGhvcml0eTAeFw0xNzExMTMx
NTAxMzlaFw0xODAxMTIxNTAxMzlaMHwxCzAJBgNVBAYTAkZSMQ8wDQYDVQQIDAZS
YWRpdXMxFTATBgNVBAoMDEV4YW1wbGUgSW5jLjEjMCEGA1UEAwwaRXhhbXBsZSBT
ZXJ2ZXIgQ2VydGlmaWNhdGUxIDAeBgkqhkiG9w0BCQEWEWFkbWluQGV4YW1wbGUu
b3JnMIIBIjANBgkqhkiG9w0BAQEFAAOCAQ8AMIIBCgKCAQEAwjcHSawr3o9EN4NC
AAtL9UH2eKtwij+5DMFQV1AQRgTzgAe20TFzn28Q2pM42NJ5kTXpC9I2Wxs/bcwR
L+YS88lT9/thbVJlD/kPcoibgjJ4Y+F7WqhSF78gujxu0EpxV//m+Wk9Gem4P7Ff
4sUm6q4Sl0H8YUeyPr85CnbgrwzRGJ6wfkZSBZdTKQ+nc1VixlufcM4L3mamVgdR
jIro0/DjgIK6YW/bRbV/6+ernLyUBDU8x7OhqNEtaDNb4/btQNrIrR9Ze+tERL1Y
dw1cyeR8i581RBN8HY9VcdYGfK5Djnrnn0yVe8F8NqFx39T556F8PaaQnzTmRfiL
3jIuZQIDAQABo08wTTATBgNVHSUEDDAKBggrBgEFBQcDATA2BgNVHR8ELzAtMCug
KaAnhiVodHRwOi8vd3d3LmV4YW1wbGUuY29tL2V4YW1wbGVfY2EuY3JsMA0GCSqG
SIb3DQEBCwUAA4IBAQCJ5KWBkGaCt6jkiSNGwsXXBO7O9sSXJ6koxRB5+GrXD+jU
SZ+oWGuqPFaK0jm+S68NgU0FlQ4rTqtZInqR8u2tLa72yDKXM04sskrBaENQtrxC
gR2LCa37X8MQEjmAIOFe4ePnX/jQbDlHIe0MeEHS5Ecv/FdS9lJD9q3mRCiczX6S
n/k5X8Tn9JM98AmrV5T/WFu38mbzQpI85OiVjQmSeoD2+mXEjCMulXVyd4pa6/of
osDsdvBY7se4++H7TbZp7l4x10qMR/2ORZpjKorLK1DioPbQWRQh0577CsDTcynS
a1KSogmyGnf55aZzU8/acSxAfAVxTztpCfvJfnlq
-----END CERTIFICATE-----
